; Function Attrs: nounwind uwtable
define internal void @dissect_lte_cell_search_indication_value(ptr noundef %0, ptr readnone captures(none) %1) #0 {
  %3 = alloca i32, align 4
  %4 = load i32, ptr @hf_nfapi_number_of_lte_cells_found, align 4
  %5 = call ptr @ptvcursor_add_ret_uint(ptr noundef %0, i32 noundef %4, i32 noundef 2, i32 noundef 0, ptr noundef nonnull %3) #7
  %6 = load i32, ptr @ett_nfapi_lte_cells_found_list, align 4
  %7 = load i32, ptr %3, align 4
  %.not.i = icmp eq i32 %7, 0
  br i1 %.not.i, label %dissect_array_value.exit, label %8

8:                                                ; preds = %2
  %9 = call ptr (ptr, i32, i32, ptr, ...) @ptvcursor_add_text_with_subtree(ptr noundef %0, i32 noundef -1, i32 noundef %6, ptr noundef nonnull @.str.1839, ptr noundef nonnull @.str.2339) #7
  br label %10

10:                                               ; preds = %10, %8
  %11 = phi i32 [ 0, %8 ], [ %22, %10 ]
  %.016.i = phi i16 [ 0, %8 ], [ %21, %10 ]
  %12 = call ptr (ptr, i32, i32, ptr, ...) @ptvcursor_add_text_with_subtree(ptr noundef %0, i32 noundef -1, i32 noundef %6, ptr noundef nonnull @.str.1840, i32 noundef %11) #7
  %13 = load i32, ptr @hf_nfapi_pci, align 4
  %14 = call ptr @ptvcursor_add(ptr noundef %0, i32 noundef %13, i32 noundef 2, i32 noundef 0) #7
  %15 = load i32, ptr @hf_nfapi_rsrp, align 4
  %16 = call ptr @ptvcursor_add(ptr noundef %0, i32 noundef %15, i32 noundef 1, i32 noundef 0) #7
  %17 = load i32, ptr @hf_nfapi_rsrq, align 4
  %18 = call ptr @ptvcursor_add(ptr noundef %0, i32 noundef %17, i32 noundef 1, i32 noundef 0) #7
  %19 = load i32, ptr @hf_nfapi_frequency_offset, align 4
  %20 = call ptr @ptvcursor_add(ptr noundef %0, i32 noundef %19, i32 noundef 2, i32 noundef 0) #7
  call void @ptvcursor_pop_subtree(ptr noundef %0) #7
  %21 = add i16 %.016.i, 1
  %22 = zext i16 %21 to i32
  %23 = icmp ugt i32 %7, %22
  br i1 %23, label %10, label %24, !llvm.loop !4

24:                                               ; preds = %10
  call void @ptvcursor_pop_subtree(ptr noundef %0) #7
  br label %dissect_array_value.exit

dissect_array_value.exit:                         ; preds = %2, %24
  ret void
}